; Function Attrs: mustprogress uwtable
define internal fastcc void @_ZZNK8facebook5velox9functions12_GLOBAL__N_113SplitFunction12applyDecodedIiEEvRKNS0_17SelectivityVectorERNS0_4exec7EvalCtxEPNS0_13DecodedVectorESC_SC_RNS8_12VectorWriterINS0_5ArrayINS0_7VarcharEEEvEEENKUliE0_clEi(ptr nocapture noundef nonnull readonly align 8 dereferenceable(48) %this, i32 noundef %row) unnamed_addr #0 align 2 personality ptr @__gxx_personality_v0 {
entry:
  %pex = alloca %"class.std::__exception_ptr::exception_ptr", align 8
  %agg.tmp5 = alloca %"class.std::invalid_argument", align 8
  %0 = load ptr, ptr %this, align 8
  %1 = load ptr, ptr %0, align 8
  %data_.i = getelementptr inbounds i8, ptr %1, i64 16
  %2 = load ptr, ptr %data_.i, align 8
  %isIdentityMapping_.i.i = getelementptr inbounds i8, ptr %1, i64 58
  %3 = load i8, ptr %isIdentityMapping_.i.i, align 2
  %4 = and i8 %3, 1
  %tobool.not.i.i = icmp eq i8 %4, 0
  br i1 %tobool.not.i.i, label %if.end.i.i, label %_ZNK8facebook5velox13DecodedVector7valueAtIiEET_i.exit

if.end.i.i:                                       ; preds = %entry
  %isConstantMapping_.i.i = getelementptr inbounds i8, ptr %1, i64 59
  %5 = load i8, ptr %isConstantMapping_.i.i, align 1
  %6 = and i8 %5, 1
  %tobool2.not.i.i = icmp eq i8 %6, 0
  br i1 %tobool2.not.i.i, label %if.end4.i.i, label %if.then3.i.i

if.then3.i.i:                                     ; preds = %if.end.i.i
  %constantIndex_.i.i = getelementptr inbounds i8, ptr %1, i64 64
  %7 = load i32, ptr %constantIndex_.i.i, align 8
  br label %_ZNK8facebook5velox13DecodedVector7valueAtIiEET_i.exit

if.end4.i.i:                                      ; preds = %if.end.i.i
  %indices_.i.i = getelementptr inbounds i8, ptr %1, i64 8
  %8 = load ptr, ptr %indices_.i.i, align 8
  %idxprom.i.i = sext i32 %row to i64
  %arrayidx.i.i = getelementptr inbounds i32, ptr %8, i64 %idxprom.i.i
  %9 = load i32, ptr %arrayidx.i.i, align 4
  br label %_ZNK8facebook5velox13DecodedVector7valueAtIiEET_i.exit

_ZNK8facebook5velox13DecodedVector7valueAtIiEET_i.exit: ; preds = %entry, %if.then3.i.i, %if.end4.i.i
  %retval.0.i.i = phi i32 [ %7, %if.then3.i.i ], [ %9, %if.end4.i.i ], [ %row, %entry ]
  %idxprom.i = sext i32 %retval.0.i.i to i64
  %arrayidx.i = getelementptr inbounds i32, ptr %2, i64 %idxprom.i
  %10 = load i32, ptr %arrayidx.i, align 4
  %cmp = icmp sgt i32 %10, 0
  br i1 %cmp, label %if.then, label %if.else

if.then:                                          ; preds = %_ZNK8facebook5velox13DecodedVector7valueAtIiEET_i.exit
  %11 = getelementptr inbounds i8, ptr %this, i64 8
  %12 = load ptr, ptr %11, align 8
  %13 = load ptr, ptr %12, align 8
  %data_.i6 = getelementptr inbounds i8, ptr %13, i64 16
  %14 = load ptr, ptr %data_.i6, align 8
  %isIdentityMapping_.i.i7 = getelementptr inbounds i8, ptr %13, i64 58
  %15 = load i8, ptr %isIdentityMapping_.i.i7, align 2
  %16 = and i8 %15, 1
  %tobool.not.i.i8 = icmp eq i8 %16, 0
  br i1 %tobool.not.i.i8, label %if.end.i.i12, label %_ZNK8facebook5velox13DecodedVector7valueAtINS0_10StringViewEEET_i.exit

if.end.i.i12:                                     ; preds = %if.then
  %isConstantMapping_.i.i13 = getelementptr inbounds i8, ptr %13, i64 59
  %17 = load i8, ptr %isConstantMapping_.i.i13, align 1
  %18 = and i8 %17, 1
  %tobool2.not.i.i14 = icmp eq i8 %18, 0
  br i1 %tobool2.not.i.i14, label %if.end4.i.i17, label %if.then3.i.i15

if.then3.i.i15:                                   ; preds = %if.end.i.i12
  %constantIndex_.i.i16 = getelementptr inbounds i8, ptr %13, i64 64
  %19 = load i32, ptr %constantIndex_.i.i16, align 8
  br label %_ZNK8facebook5velox13DecodedVector7valueAtINS0_10StringViewEEET_i.exit

if.end4.i.i17:                                    ; preds = %if.end.i.i12
  %indices_.i.i18 = getelementptr inbounds i8, ptr %13, i64 8
  %20 = load ptr, ptr %indices_.i.i18, align 8
  %idxprom.i.i19 = sext i32 %row to i64
  %arrayidx.i.i20 = getelementptr inbounds i32, ptr %20, i64 %idxprom.i.i19
  %21 = load i32, ptr %arrayidx.i.i20, align 4
  br label %_ZNK8facebook5velox13DecodedVector7valueAtINS0_10StringViewEEET_i.exit

_ZNK8facebook5velox13DecodedVector7valueAtINS0_10StringViewEEET_i.exit: ; preds = %if.then, %if.then3.i.i15, %if.end4.i.i17
  %retval.0.i.i9 = phi i32 [ %19, %if.then3.i.i15 ], [ %21, %if.end4.i.i17 ], [ %row, %if.then ]
  %idxprom.i10 = sext i32 %retval.0.i.i9 to i64
  %arrayidx.i11 = getelementptr inbounds %"struct.facebook::velox::StringView", ptr %14, i64 %idxprom.i10
  %retval.sroa.0.0.copyload.i = load i64, ptr %arrayidx.i11, align 8
  %retval.sroa.2.0.arrayidx.sroa_idx.i = getelementptr inbounds i8, ptr %arrayidx.i11, i64 8
  %retval.sroa.2.0.copyload.i = load ptr, ptr %retval.sroa.2.0.arrayidx.sroa_idx.i, align 8
  %22 = getelementptr inbounds i8, ptr %this, i64 16
  %23 = load ptr, ptr %22, align 8
  %24 = load ptr, ptr %23, align 8
  %data_.i21 = getelementptr inbounds i8, ptr %24, i64 16
  %25 = load ptr, ptr %data_.i21, align 8
  %isIdentityMapping_.i.i22 = getelementptr inbounds i8, ptr %24, i64 58
  %26 = load i8, ptr %isIdentityMapping_.i.i22, align 2
  %27 = and i8 %26, 1
  %tobool.not.i.i23 = icmp eq i8 %27, 0
  br i1 %tobool.not.i.i23, label %if.end.i.i32, label %_ZNK8facebook5velox13DecodedVector7valueAtINS0_10StringViewEEET_i.exit41

if.end.i.i32:                                     ; preds = %_ZNK8facebook5velox13DecodedVector7valueAtINS0_10StringViewEEET_i.exit
  %isConstantMapping_.i.i33 = getelementptr inbounds i8, ptr %24, i64 59
  %28 = load i8, ptr %isConstantMapping_.i.i33, align 1
  %29 = and i8 %28, 1
  %tobool2.not.i.i34 = icmp eq i8 %29, 0
  br i1 %tobool2.not.i.i34, label %if.end4.i.i37, label %if.then3.i.i35

if.then3.i.i35:                                   ; preds = %if.end.i.i32
  %constantIndex_.i.i36 = getelementptr inbounds i8, ptr %24, i64 64
  %30 = load i32, ptr %constantIndex_.i.i36, align 8
  br label %_ZNK8facebook5velox13DecodedVector7valueAtINS0_10StringViewEEET_i.exit41

if.end4.i.i37:                                    ; preds = %if.end.i.i32
  %indices_.i.i38 = getelementptr inbounds i8, ptr %24, i64 8
  %31 = load ptr, ptr %indices_.i.i38, align 8
  %idxprom.i.i39 = sext i32 %row to i64
  %arrayidx.i.i40 = getelementptr inbounds i32, ptr %31, i64 %idxprom.i.i39
  %32 = load i32, ptr %arrayidx.i.i40, align 4
  br label %_ZNK8facebook5velox13DecodedVector7valueAtINS0_10StringViewEEET_i.exit41

_ZNK8facebook5velox13DecodedVector7valueAtINS0_10StringViewEEET_i.exit41: ; preds = %_ZNK8facebook5velox13DecodedVector7valueAtINS0_10StringViewEEET_i.exit, %if.then3.i.i35, %if.end4.i.i37
  %retval.0.i.i24 = phi i32 [ %30, %if.then3.i.i35 ], [ %32, %if.end4.i.i37 ], [ %row, %_ZNK8facebook5velox13DecodedVector7valueAtINS0_10StringViewEEET_i.exit ]
  %idxprom.i25 = sext i32 %retval.0.i.i24 to i64
  %arrayidx.i26 = getelementptr inbounds %"struct.facebook::velox::StringView", ptr %25, i64 %idxprom.i25
  %retval.sroa.0.0.copyload.i27 = load i64, ptr %arrayidx.i26, align 8
  %retval.sroa.2.0.arrayidx.sroa_idx.i28 = getelementptr inbounds i8, ptr %arrayidx.i26, i64 8
  %retval.sroa.2.0.copyload.i29 = load ptr, ptr %retval.sroa.2.0.arrayidx.sroa_idx.i28, align 8
  %33 = getelementptr inbounds i8, ptr %this, i64 24
  %34 = load ptr, ptr %33, align 8
  tail call fastcc void @_ZNK8facebook5velox9functions12_GLOBAL__N_113SplitFunction10applyInnerILb1EiEEvNS0_10StringViewES5_T0_iRNS0_4exec12VectorWriterINS0_5ArrayINS0_7VarcharEEEvEE(i64 %retval.sroa.0.0.copyload.i, ptr %retval.sroa.2.0.copyload.i, i64 %retval.sroa.0.0.copyload.i27, ptr %retval.sroa.2.0.copyload.i29, i32 noundef %10, i32 noundef %row, ptr noundef nonnull align 8 dereferenceable(192) %34)
  br label %if.end

if.else:                                          ; preds = %_ZNK8facebook5velox13DecodedVector7valueAtIiEET_i.exit
  call void @_ZNSt16invalid_argumentC1EPKc(ptr noundef nonnull align 8 dereferenceable(16) %agg.tmp5, ptr noundef nonnull @.str.7)
  %call.i = call ptr @__cxa_allocate_exception(i64 noundef 16) #29, !noalias !160
  %call1.i = call ptr @__cxa_init_primary_exception(ptr noundef %call.i, ptr noundef nonnull @_ZTISt16invalid_argument, ptr noundef nonnull @_ZNSt15__exception_ptr12__dest_thunkISt16invalid_argumentEEvPv) #29, !noalias !160
  call void @_ZNSt11logic_errorC2ERKS_(ptr noundef nonnull align 8 dereferenceable(16) %call.i, ptr noundef nonnull align 8 dereferenceable(16) %agg.tmp5) #29, !noalias !160
  store ptr getelementptr inbounds ({ [5 x ptr] }, ptr @_ZTVSt16invalid_argument, i64 0, i32 0, i64 2), ptr %call.i, align 8, !noalias !160
  call void @_ZNSt15__exception_ptr13exception_ptrC1EPv(ptr noundef nonnull align 8 dereferenceable(8) %pex, ptr noundef nonnull %call.i) #29
  call void @_ZNSt16invalid_argumentD1Ev(ptr noundef nonnull align 8 dereferenceable(16) %agg.tmp5) #29
  %35 = getelementptr inbounds i8, ptr %this, i64 40
  %36 = load ptr, ptr %35, align 8
  invoke void @_ZN8facebook5velox4exec7EvalCtx8setErrorEiRKNSt15__exception_ptr13exception_ptrE(ptr noundef nonnull align 8 dereferenceable(104) %36, i32 noundef %row, ptr noundef nonnull align 8 dereferenceable(8) %pex)
          to label %invoke.cont unwind label %lpad

invoke.cont:                                      ; preds = %if.else
  %37 = load ptr, ptr %pex, align 8
  %tobool.not.i = icmp eq ptr %37, null
  br i1 %tobool.not.i, label %if.end, label %if.then.i

if.then.i:                                        ; preds = %invoke.cont
  call void @_ZNSt15__exception_ptr13exception_ptr10_M_releaseEv(ptr noundef nonnull align 8 dereferenceable(8) %pex) #29
  br label %if.end

lpad:                                             ; preds = %if.else
  %38 = landingpad { ptr, i32 }
          cleanup
  %39 = load ptr, ptr %pex, align 8
  %tobool.not.i42 = icmp eq ptr %39, null
  br i1 %tobool.not.i42, label %_ZNSt15__exception_ptr13exception_ptrD2Ev.exit44, label %if.then.i43

if.then.i43:                                      ; preds = %lpad
  call void @_ZNSt15__exception_ptr13exception_ptr10_M_releaseEv(ptr noundef nonnull align 8 dereferenceable(8) %pex) #29
  br label %_ZNSt15__exception_ptr13exception_ptrD2Ev.exit44

_ZNSt15__exception_ptr13exception_ptrD2Ev.exit44: ; preds = %lpad, %if.then.i43
  resume { ptr, i32 } %38

if.end:                                           ; preds = %if.then.i, %invoke.cont, %_ZNK8facebook5velox13DecodedVector7valueAtINS0_10StringViewEEET_i.exit41
  ret void
}